; Function Attrs: nounwind uwtable
define hidden void @_mi_page_reclaim(ptr noundef captures(address) %0, ptr noundef %1) local_unnamed_addr #1 {
  %3 = alloca i64, align 8
  %4 = getelementptr inbounds nuw i8, ptr %1, i64 28
  %5 = load i32, ptr %4, align 4, !tbaa !36
  %6 = icmp sgt i32 %5, -1
  br i1 %6, label %7, label %9, !prof !34

7:                                                ; preds = %2
  %8 = zext nneg i32 %5 to i64
  br label %mi_page_block_size.exit

9:                                                ; preds = %2
  call void @llvm.lifetime.start.p0(i64 8, ptr nonnull %3) #8
  %10 = ptrtoint ptr %1 to i64
  %11 = and i64 %10, -67108864
  %12 = inttoptr i64 %11 to ptr
  %13 = call ptr @_mi_segment_page_start(ptr noundef %12, ptr noundef nonnull %1, ptr noundef nonnull %3) #8
  %14 = load i64, ptr %3, align 8, !tbaa !37
  call void @llvm.lifetime.end.p0(i64 8, ptr nonnull %3) #8
  br label %mi_page_block_size.exit

mi_page_block_size.exit:                          ; preds = %7, %9
  %.0.i = phi i64 [ %8, %7 ], [ %14, %9 ]
  %15 = add i64 %.0.i, 7
  %16 = lshr i64 %15, 3
  %17 = icmp ult i64 %15, 16
  br i1 %17, label %mi_page_queue.exit, label %18

18:                                               ; preds = %mi_page_block_size.exit
  %19 = icmp ult i64 %15, 72
  br i1 %19, label %20, label %23

20:                                               ; preds = %18
  %21 = add nuw nsw i64 %16, 1
  %22 = and i64 %21, 30
  br label %mi_page_queue.exit

23:                                               ; preds = %18
  %24 = icmp ugt i64 %15, 131079
  br i1 %24, label %mi_page_queue.exit, label %25

25:                                               ; preds = %23
  %26 = add nsw i64 %16, -1
  %27 = call range(i64 50, 61) i64 @llvm.ctlz.i64(i64 range(i64 8, 16384) %26, i1 true)
  %28 = shl nuw nsw i64 %27, 2
  %29 = xor i64 %28, 252
  %30 = sub nuw nsw i64 61, %27
  %31 = lshr i64 %26, %30
  %32 = and i64 %31, 3
  %33 = add nuw nsw i64 %29, 253
  %34 = add nuw nsw i64 %33, %32
  %35 = and i64 %34, 255
  br label %mi_page_queue.exit

mi_page_queue.exit:                               ; preds = %mi_page_block_size.exit, %20, %23, %25
  %.0.i.i.i = phi i64 [ %22, %20 ], [ %35, %25 ], [ 1, %mi_page_block_size.exit ], [ 73, %23 ]
  %36 = getelementptr inbounds nuw i8, ptr %0, i64 1040
  %37 = getelementptr inbounds nuw [75 x %struct.mi_page_queue_s], ptr %36, i64 0, i64 %.0.i.i.i
  call fastcc void @mi_page_queue_push(ptr noundef %0, ptr noundef nonnull %37, ptr noundef nonnull %1)
  ret void
}